target datalayout = "e-m:e-p270:32:32-p271:32:32-p272:64:64-i64:64-i128:128-f80:128-n8:16:32:64-S128"
target triple = "x86_64-pc-linux-gnu"

@_ZN19OpenColorIO_v2_5dev7DISPLAY3HLGL1cE = internal global double 0.000000e+00, align 8

; Function Attrs: inlinehint mustprogress nounwind uwtable
define linkonce_odr noundef double @_ZSt3absd(double noundef %0) #11 comdat {
  %2 = alloca double, align 8
  store double %0, ptr %2, align 8, !tbaa !17
  %3 = load double, ptr %2, align 8, !tbaa !17
  %4 = call double @llvm.fabs.f64(double %3)
  ret double %4
}

; Function Attrs: inlinehint mustprogress nounwind uwtable
define internal noundef float @"_ZZN19OpenColorIO_v2_5dev7DISPLAY3HLG22GenerateHLGToLinearOpsERNS_10OpRcPtrVecEENK3$_0clEd"(ptr noundef nonnull align 1 dereferenceable(1) %0, double noundef %1) #11 align 2 {
  %3 = alloca ptr, align 8
  %4 = alloca double, align 8
  %5 = alloca double, align 8
  %6 = alloca double, align 8
  store ptr %0, ptr %3, align 8, !tbaa !10
  store double %1, ptr %4, align 8, !tbaa !17
  call void @llvm.lifetime.start.p0(i64 8, ptr %5) #3
  store double 0.000000e+00, ptr %5, align 8, !tbaa !17
  call void @llvm.lifetime.start.p0(i64 8, ptr %6) #3
  %7 = load double, ptr %4, align 8, !tbaa !17
  %8 = call noundef double @_ZSt3absd(double noundef %7)
  store double %8, ptr %6, align 8, !tbaa !17
  %9 = load double, ptr %6, align 8, !tbaa !17
  %10 = fcmp olt double %9, 5.000000e-01
  br i1 %10, label %11, label %16

11:                                               ; preds = %2
  %12 = load double, ptr %6, align 8, !tbaa !17
  %13 = load double, ptr %6, align 8, !tbaa !17
  %14 = fmul double %12, %13
  %15 = fdiv double %14, 1.000000e+00
  store double %15, ptr %5, align 8, !tbaa !17
  br label %23

16:                                               ; preds = %2
  %17 = load double, ptr %6, align 8, !tbaa !17
  %18 = load double, ptr @_ZN19OpenColorIO_v2_5dev7DISPLAY3HLGL1cE, align 8, !tbaa !17
  %19 = fsub double %17, %18
  %20 = fdiv double %19, 0x3FC6E3FE014D320D
  %21 = call double @exp(double noundef %20) #3, !tbaa !15
  %22 = fadd double 0x3FB23803FD659BE6, %21
  store double %22, ptr %5, align 8, !tbaa !17
  br label %23

23:                                               ; preds = %16, %11
  %24 = load double, ptr %5, align 8, !tbaa !17
  %25 = load double, ptr %4, align 8, !tbaa !17
  %26 = call double @llvm.copysign.f64(double %24, double %25)
  %27 = fptrunc double %26 to float
  call void @llvm.lifetime.end.p0(i64 8, ptr %6) #3
  call void @llvm.lifetime.end.p0(i64 8, ptr %5) #3
  ret float %27
}

; Function Attrs: mustprogress nounwind uwtable
define linkonce_odr hidden noundef ptr @_ZNKSt9_Any_data9_M_accessEv(ptr noundef nonnull align 8 dereferenceable(16) %0) #6 comdat align 2 {
  %2 = alloca ptr, align 8
  store ptr %0, ptr %2, align 8, !tbaa !28
  %3 = load ptr, ptr %2, align 8
  %4 = getelementptr inbounds [16 x i8], ptr %3, i64 0, i64 0
  ret ptr %4
}

; Function Attrs: mustprogress uwtable
define internal noundef float @"_ZSt13__invoke_implIfRZN19OpenColorIO_v2_5dev7DISPLAY3HLG22GenerateHLGToLinearOpsERNS0_10OpRcPtrVecEE3$_0JdEET_St14__invoke_otherOT0_DpOT1_"(ptr noundef nonnull align 1 dereferenceable(1) %0, ptr noundef nonnull align 8 dereferenceable(8) %1) #4 {
  %3 = alloca ptr, align 8
  %4 = alloca ptr, align 8
  store ptr %0, ptr %3, align 8, !tbaa !10
  store ptr %1, ptr %4, align 8, !tbaa !30
  %5 = load ptr, ptr %3, align 8, !tbaa !10
  %6 = load ptr, ptr %4, align 8, !tbaa !30
  %7 = load double, ptr %6, align 8, !tbaa !17
  %8 = call noundef float @"_ZZN19OpenColorIO_v2_5dev7DISPLAY3HLG22GenerateHLGToLinearOpsERNS_10OpRcPtrVecEENK3$_0clEd"(ptr noundef nonnull align 1 dereferenceable(1) %5, double noundef %7)
  ret float %8
}

; Function Attrs: mustprogress nounwind uwtable
define internal noundef nonnull align 1 dereferenceable(1) ptr @"_ZNKSt9_Any_data9_M_accessIZN19OpenColorIO_v2_5dev7DISPLAY3HLG22GenerateHLGToLinearOpsERNS1_10OpRcPtrVecEE3$_0EERKT_v"(ptr noundef nonnull align 8 dereferenceable(16) %0) #6 align 2 {
  %2 = alloca ptr, align 8
  store ptr %0, ptr %2, align 8, !tbaa !28
  %3 = load ptr, ptr %2, align 8
  %4 = call noundef ptr @_ZNKSt9_Any_data9_M_accessEv(ptr noundef nonnull align 8 dereferenceable(16) %3) #3
  ret ptr %4
}

; Function Attrs: mustprogress uwtable
define internal noundef float @"_ZSt10__invoke_rIfRZN19OpenColorIO_v2_5dev7DISPLAY3HLG22GenerateHLGToLinearOpsERNS0_10OpRcPtrVecEE3$_0JdEENSt9enable_ifIXsr6__and_ISt6__not_ISt7is_voidIT_EESt14is_convertibleINSt15__invoke_resultIT0_JDpT1_EE4typeESA_EEE5valueESA_E4typeEOSF_DpOSG_"(ptr noundef nonnull align 1 dereferenceable(1) %0, ptr noundef nonnull align 8 dereferenceable(8) %1) #4 {
  %3 = alloca ptr, align 8
  %4 = alloca ptr, align 8
  store ptr %0, ptr %3, align 8, !tbaa !10
  store ptr %1, ptr %4, align 8, !tbaa !30
  %5 = load ptr, ptr %3, align 8, !tbaa !10
  %6 = load ptr, ptr %4, align 8, !tbaa !30
  %7 = call noundef float @"_ZSt13__invoke_implIfRZN19OpenColorIO_v2_5dev7DISPLAY3HLG22GenerateHLGToLinearOpsERNS0_10OpRcPtrVecEE3$_0JdEET_St14__invoke_otherOT0_DpOT1_"(ptr noundef nonnull align 1 dereferenceable(1) %5, ptr noundef nonnull align 8 dereferenceable(8) %6)
  ret float %7
}

; Function Attrs: mustprogress nounwind uwtable
define internal noundef ptr @"_ZNSt14_Function_base13_Base_managerIZN19OpenColorIO_v2_5dev7DISPLAY3HLG22GenerateHLGToLinearOpsERNS1_10OpRcPtrVecEE3$_0E14_M_get_pointerERKSt9_Any_data"(ptr noundef nonnull align 8 dereferenceable(16) %0) #6 align 2 {
  %2 = alloca ptr, align 8
  %3 = alloca ptr, align 8
  store ptr %0, ptr %2, align 8, !tbaa !28
  call void @llvm.lifetime.start.p0(i64 8, ptr %3) #3
  %4 = load ptr, ptr %2, align 8, !tbaa !28
  %5 = call noundef nonnull align 1 dereferenceable(1) ptr @"_ZNKSt9_Any_data9_M_accessIZN19OpenColorIO_v2_5dev7DISPLAY3HLG22GenerateHLGToLinearOpsERNS1_10OpRcPtrVecEE3$_0EERKT_v"(ptr noundef nonnull align 8 dereferenceable(16) %4) #3
  store ptr %5, ptr %3, align 8, !tbaa !10
  %6 = load ptr, ptr %3, align 8, !tbaa !10
  call void @llvm.lifetime.end.p0(i64 8, ptr %3) #3
  ret ptr %6
}

; Function Attrs: mustprogress uwtable
define internal noundef float @"_ZNSt17_Function_handlerIFfdEZN19OpenColorIO_v2_5dev7DISPLAY3HLG22GenerateHLGToLinearOpsERNS1_10OpRcPtrVecEE3$_0E9_M_invokeERKSt9_Any_dataOd"(ptr noundef nonnull align 8 dereferenceable(16) %0, ptr noundef nonnull align 8 dereferenceable(8) %1) #4 align 2 {
  %3 = alloca ptr, align 8
  %4 = alloca ptr, align 8
  store ptr %0, ptr %3, align 8, !tbaa !28
  store ptr %1, ptr %4, align 8, !tbaa !30
  %5 = load ptr, ptr %3, align 8, !tbaa !28
  %6 = call noundef ptr @"_ZNSt14_Function_base13_Base_managerIZN19OpenColorIO_v2_5dev7DISPLAY3HLG22GenerateHLGToLinearOpsERNS1_10OpRcPtrVecEE3$_0E14_M_get_pointerERKSt9_Any_data"(ptr noundef nonnull align 8 dereferenceable(16) %5) #3
  %7 = load ptr, ptr %4, align 8, !tbaa !30
  %8 = call noundef float @"_ZSt10__invoke_rIfRZN19OpenColorIO_v2_5dev7DISPLAY3HLG22GenerateHLGToLinearOpsERNS0_10OpRcPtrVecEE3$_0JdEENSt9enable_ifIXsr6__and_ISt6__not_ISt7is_voidIT_EESt14is_convertibleINSt15__invoke_resultIT0_JDpT1_EE4typeESA_EEE5valueESA_E4typeEOSF_DpOSG_"(ptr noundef nonnull align 1 dereferenceable(1) %6, ptr noundef nonnull align 8 dereferenceable(8) %7)
  ret float %8
}