; Function Attrs: mustprogress nofree nounwind willreturn memory(readwrite, inaccessiblemem: write) uwtable
define internal noundef float @"_ZNSt17_Function_handlerIFfdEZN19OpenColorIO_v2_5dev7DISPLAY3HLG22GenerateHLGToLinearOpsERNS1_10OpRcPtrVecEE3$_0E9_M_invokeERKSt9_Any_dataOd"(ptr nonnull readnone align 8 captures(none) %0, ptr noundef nonnull readonly align 8 captures(none) dereferenceable(8) %1) #13 align 2 {
  %.val = load double, ptr %1, align 8, !tbaa !12
  %3 = tail call noundef double @llvm.fabs.f64(double %.val)
  %4 = fcmp olt double %3, 5.000000e-01
  br i1 %4, label %5, label %7

5:                                                ; preds = %2
  %6 = fmul double %.val, %.val
  br label %"_ZSt10__invoke_rIfRZN19OpenColorIO_v2_5dev7DISPLAY3HLG22GenerateHLGToLinearOpsERNS0_10OpRcPtrVecEE3$_0JdEENSt9enable_ifIXsr6__and_ISt6__not_ISt7is_voidIT_EESt14is_convertibleINSt15__invoke_resultIT0_JDpT1_EE4typeESA_EEE5valueESA_E4typeEOSF_DpOSG_.exit"

7:                                                ; preds = %2
  %8 = load double, ptr @_ZN19OpenColorIO_v2_5dev7DISPLAY3HLGL1cE, align 8, !tbaa !12
  %9 = fsub double %3, %8
  %10 = fdiv double %9, 0x3FC6E3FE014D320D
  %11 = tail call double @exp(double noundef %10) #23, !tbaa !14
  %12 = fadd double %11, 0x3FB23803FD659BE6
  br label %"_ZSt10__invoke_rIfRZN19OpenColorIO_v2_5dev7DISPLAY3HLG22GenerateHLGToLinearOpsERNS0_10OpRcPtrVecEE3$_0JdEENSt9enable_ifIXsr6__and_ISt6__not_ISt7is_voidIT_EESt14is_convertibleINSt15__invoke_resultIT0_JDpT1_EE4typeESA_EEE5valueESA_E4typeEOSF_DpOSG_.exit"

"_ZSt10__invoke_rIfRZN19OpenColorIO_v2_5dev7DISPLAY3HLG22GenerateHLGToLinearOpsERNS0_10OpRcPtrVecEE3$_0JdEENSt9enable_ifIXsr6__and_ISt6__not_ISt7is_voidIT_EESt14is_convertibleINSt15__invoke_resultIT0_JDpT1_EE4typeESA_EEE5valueESA_E4typeEOSF_DpOSG_.exit": ; preds = %5, %7
  %.0.i.i.i = phi double [ %6, %5 ], [ %12, %7 ]
  %13 = tail call double @llvm.copysign.f64(double %.0.i.i.i, double %.val)
  %14 = fptrunc double %13 to float
  ret float %14
}